target datalayout = "e-m:e-p270:32:32-p271:32:32-p272:64:64-i64:64-i128:128-f80:128-n8:16:32:64-S128"
target triple = "x86_64-pc-linux-gnu"

%struct.AVFilterContext = type { ptr, ptr, ptr, ptr, ptr, i32, ptr, ptr, i32, ptr, ptr, i32, i32, ptr, ptr, ptr, ptr, i32, ptr, i32, i32 }
%struct.MidEqualizerContext = type { ptr, [2 x [4 x i32]], [2 x [4 x i32]], i32, i32, i32, [2 x ptr], ptr, %struct.FFFrameSync, ptr }
%struct.FFFrameSync = type { ptr, ptr, i32, %struct.AVRational, i64, ptr, ptr, i32, i32, i8, i8, ptr, i32, i32, i32, i32 }
%struct.AVRational = type { i32, i32 }
%struct.AVFilterLink = type { ptr, ptr, ptr, ptr, i32, i32, i32, i32, %struct.AVRational, i32, i32, i32, %struct.AVChannelLayout, %struct.AVRational, ptr, i32, %struct.AVFilterFormatsConfig, %struct.AVFilterFormatsConfig }
%struct.AVChannelLayout = type { i32, i32, %union.anon.1, ptr }
%union.anon.1 = type { i64 }
%struct.AVFilterFormatsConfig = type { ptr, ptr, ptr, ptr, ptr }
%struct.AVPixFmtDescriptor = type { ptr, i8, i8, i8, i64, [4 x %struct.AVComponentDescriptor], ptr }
%struct.AVComponentDescriptor = type { i32, i32, i32, i32, i32 }

; Function Attrs: nounwind uwtable
define internal i32 @config_input1(ptr noundef %0) #1 {
  %2 = alloca ptr, align 8
  %3 = alloca ptr, align 8
  %4 = alloca ptr, align 8
  %5 = alloca ptr, align 8
  %6 = alloca i32, align 4
  %7 = alloca i32, align 4
  store ptr %0, ptr %2, align 8, !tbaa !24
  call void @llvm.lifetime.start.p0(i64 8, ptr %3) #10
  %8 = load ptr, ptr %2, align 8, !tbaa !24
  %9 = getelementptr inbounds nuw %struct.AVFilterLink, ptr %8, i32 0, i32 2
  %10 = load ptr, ptr %9, align 8, !tbaa !26
  store ptr %10, ptr %3, align 8, !tbaa !4
  call void @llvm.lifetime.start.p0(i64 8, ptr %4) #10
  %11 = load ptr, ptr %3, align 8, !tbaa !4
  %12 = getelementptr inbounds nuw %struct.AVFilterContext, ptr %11, i32 0, i32 9
  %13 = load ptr, ptr %12, align 8, !tbaa !9
  store ptr %13, ptr %4, align 8, !tbaa !22
  call void @llvm.lifetime.start.p0(i64 8, ptr %5) #10
  %14 = load ptr, ptr %2, align 8, !tbaa !24
  %15 = getelementptr inbounds nuw %struct.AVFilterLink, ptr %14, i32 0, i32 5
  %16 = load i32, ptr %15, align 4, !tbaa !34
  %17 = call ptr @av_pix_fmt_desc_get(i32 noundef %16)
  store ptr %17, ptr %5, align 8, !tbaa !35
  call void @llvm.lifetime.start.p0(i64 4, ptr %6) #10
  call void @llvm.lifetime.start.p0(i64 4, ptr %7) #10
  %18 = load ptr, ptr %2, align 8, !tbaa !24
  %19 = getelementptr inbounds nuw %struct.AVFilterLink, ptr %18, i32 0, i32 5
  %20 = load i32, ptr %19, align 4, !tbaa !34
  %21 = call i32 @av_pix_fmt_count_planes(i32 noundef %20)
  %22 = load ptr, ptr %4, align 8, !tbaa !22
  %23 = getelementptr inbounds nuw %struct.MidEqualizerContext, ptr %22, i32 0, i32 3
  store i32 %21, ptr %23, align 8, !tbaa !37
  %24 = load ptr, ptr %5, align 8, !tbaa !35
  %25 = getelementptr inbounds nuw %struct.AVPixFmtDescriptor, ptr %24, i32 0, i32 2
  %26 = load i8, ptr %25, align 1, !tbaa !43
  %27 = zext i8 %26 to i32
  store i32 %27, ptr %7, align 4, !tbaa !45
  %28 = load ptr, ptr %5, align 8, !tbaa !35
  %29 = getelementptr inbounds nuw %struct.AVPixFmtDescriptor, ptr %28, i32 0, i32 3
  %30 = load i8, ptr %29, align 2, !tbaa !46
  %31 = zext i8 %30 to i32
  store i32 %31, ptr %6, align 4, !tbaa !45
  %32 = load ptr, ptr %2, align 8, !tbaa !24
  %33 = getelementptr inbounds nuw %struct.AVFilterLink, ptr %32, i32 0, i32 7
  %34 = load i32, ptr %33, align 4, !tbaa !47
  %35 = load ptr, ptr %4, align 8, !tbaa !22
  %36 = getelementptr inbounds nuw %struct.MidEqualizerContext, ptr %35, i32 0, i32 2
  %37 = getelementptr inbounds [2 x [4 x i32]], ptr %36, i64 0, i64 1
  %38 = getelementptr inbounds [4 x i32], ptr %37, i64 0, i64 3
  store i32 %34, ptr %38, align 4, !tbaa !45
  %39 = load ptr, ptr %4, align 8, !tbaa !22
  %40 = getelementptr inbounds nuw %struct.MidEqualizerContext, ptr %39, i32 0, i32 2
  %41 = getelementptr inbounds [2 x [4 x i32]], ptr %40, i64 0, i64 1
  %42 = getelementptr inbounds [4 x i32], ptr %41, i64 0, i64 0
  store i32 %34, ptr %42, align 8, !tbaa !45
  %43 = load ptr, ptr %2, align 8, !tbaa !24
  %44 = getelementptr inbounds nuw %struct.AVFilterLink, ptr %43, i32 0, i32 6
  %45 = load i32, ptr %44, align 8, !tbaa !48
  %46 = load ptr, ptr %4, align 8, !tbaa !22
  %47 = getelementptr inbounds nuw %struct.MidEqualizerContext, ptr %46, i32 0, i32 1
  %48 = getelementptr inbounds [2 x [4 x i32]], ptr %47, i64 0, i64 1
  %49 = getelementptr inbounds [4 x i32], ptr %48, i64 0, i64 3
  store i32 %45, ptr %49, align 4, !tbaa !45
  %50 = load ptr, ptr %4, align 8, !tbaa !22
  %51 = getelementptr inbounds nuw %struct.MidEqualizerContext, ptr %50, i32 0, i32 1
  %52 = getelementptr inbounds [2 x [4 x i32]], ptr %51, i64 0, i64 1
  %53 = getelementptr inbounds [4 x i32], ptr %52, i64 0, i64 0
  store i32 %45, ptr %53, align 8, !tbaa !45
  %54 = load i32, ptr %6, align 4, !tbaa !45
  %55 = call i1 @llvm.is.constant.i32(i32 %54)
  br i1 %55, label %64, label %56

56:                                               ; preds = %1
  %57 = load ptr, ptr %2, align 8, !tbaa !24
  %58 = getelementptr inbounds nuw %struct.AVFilterLink, ptr %57, i32 0, i32 7
  %59 = load i32, ptr %58, align 4, !tbaa !47
  %60 = sub nsw i32 0, %59
  %61 = load i32, ptr %6, align 4, !tbaa !45
  %62 = ashr i32 %60, %61
  %63 = sub nsw i32 0, %62
  br label %74

64:                                               ; preds = %1
  %65 = load ptr, ptr %2, align 8, !tbaa !24
  %66 = getelementptr inbounds nuw %struct.AVFilterLink, ptr %65, i32 0, i32 7
  %67 = load i32, ptr %66, align 4, !tbaa !47
  %68 = load i32, ptr %6, align 4, !tbaa !45
  %69 = shl i32 1, %68
  %70 = add nsw i32 %67, %69
  %71 = sub nsw i32 %70, 1
  %72 = load i32, ptr %6, align 4, !tbaa !45
  %73 = ashr i32 %71, %72
  br label %74

74:                                               ; preds = %64, %56
  %75 = phi i32 [ %63, %56 ], [ %73, %64 ]
  %76 = load ptr, ptr %4, align 8, !tbaa !22
  %77 = getelementptr inbounds nuw %struct.MidEqualizerContext, ptr %76, i32 0, i32 2
  %78 = getelementptr inbounds [2 x [4 x i32]], ptr %77, i64 0, i64 1
  %79 = getelementptr inbounds [4 x i32], ptr %78, i64 0, i64 2
  store i32 %75, ptr %79, align 8, !tbaa !45
  %80 = load ptr, ptr %4, align 8, !tbaa !22
  %81 = getelementptr inbounds nuw %struct.MidEqualizerContext, ptr %80, i32 0, i32 2
  %82 = getelementptr inbounds [2 x [4 x i32]], ptr %81, i64 0, i64 1
  %83 = getelementptr inbounds [4 x i32], ptr %82, i64 0, i64 1
  store i32 %75, ptr %83, align 4, !tbaa !45
  %84 = load i32, ptr %7, align 4, !tbaa !45
  %85 = call i1 @llvm.is.constant.i32(i32 %84)
  br i1 %85, label %94, label %86

86:                                               ; preds = %74
  %87 = load ptr, ptr %2, align 8, !tbaa !24
  %88 = getelementptr inbounds nuw %struct.AVFilterLink, ptr %87, i32 0, i32 6
  %89 = load i32, ptr %88, align 8, !tbaa !48
  %90 = sub nsw i32 0, %89
  %91 = load i32, ptr %7, align 4, !tbaa !45
  %92 = ashr i32 %90, %91
  %93 = sub nsw i32 0, %92
  br label %104

94:                                               ; preds = %74
  %95 = load ptr, ptr %2, align 8, !tbaa !24
  %96 = getelementptr inbounds nuw %struct.AVFilterLink, ptr %95, i32 0, i32 6
  %97 = load i32, ptr %96, align 8, !tbaa !48
  %98 = load i32, ptr %7, align 4, !tbaa !45
  %99 = shl i32 1, %98
  %100 = add nsw i32 %97, %99
  %101 = sub nsw i32 %100, 1
  %102 = load i32, ptr %7, align 4, !tbaa !45
  %103 = ashr i32 %101, %102
  br label %104

104:                                              ; preds = %94, %86
  %105 = phi i32 [ %93, %86 ], [ %103, %94 ]
  %106 = load ptr, ptr %4, align 8, !tbaa !22
  %107 = getelementptr inbounds nuw %struct.MidEqualizerContext, ptr %106, i32 0, i32 1
  %108 = getelementptr inbounds [2 x [4 x i32]], ptr %107, i64 0, i64 1
  %109 = getelementptr inbounds [4 x i32], ptr %108, i64 0, i64 2
  store i32 %105, ptr %109, align 8, !tbaa !45
  %110 = load ptr, ptr %4, align 8, !tbaa !22
  %111 = getelementptr inbounds nuw %struct.MidEqualizerContext, ptr %110, i32 0, i32 1
  %112 = getelementptr inbounds [2 x [4 x i32]], ptr %111, i64 0, i64 1
  %113 = getelementptr inbounds [4 x i32], ptr %112, i64 0, i64 1
  store i32 %105, ptr %113, align 4, !tbaa !45
  call void @llvm.lifetime.end.p0(i64 4, ptr %7) #10
  call void @llvm.lifetime.end.p0(i64 4, ptr %6) #10
  call void @llvm.lifetime.end.p0(i64 8, ptr %5) #10
  call void @llvm.lifetime.end.p0(i64 8, ptr %4) #10
  call void @llvm.lifetime.end.p0(i64 8, ptr %3) #10
  ret i32 0
}