; Function Attrs: nounwind uwtable
define internal noundef i32 @config_input1(ptr noundef readonly captures(none) %0) #1 {
  %2 = getelementptr inbounds nuw i8, ptr %0, i64 16
  %3 = load ptr, ptr %2, align 8, !tbaa !20
  %4 = getelementptr inbounds nuw i8, ptr %3, i64 72
  %5 = load ptr, ptr %4, align 8, !tbaa !4
  %6 = getelementptr inbounds nuw i8, ptr %0, i64 36
  %7 = load i32, ptr %6, align 4, !tbaa !29
  %8 = tail call ptr @av_pix_fmt_desc_get(i32 noundef %7) #7
  %9 = load i32, ptr %6, align 4, !tbaa !29
  %10 = tail call i32 @av_pix_fmt_count_planes(i32 noundef %9) #7
  %11 = getelementptr inbounds nuw i8, ptr %5, i64 72
  store i32 %10, ptr %11, align 8, !tbaa !30
  %12 = getelementptr inbounds nuw i8, ptr %8, i64 9
  %13 = load i8, ptr %12, align 1, !tbaa !36
  %14 = getelementptr inbounds nuw i8, ptr %8, i64 10
  %15 = load i8, ptr %14, align 2, !tbaa !38
  %16 = getelementptr inbounds nuw i8, ptr %0, i64 44
  %17 = load i32, ptr %16, align 4, !tbaa !39
  %18 = getelementptr inbounds nuw i8, ptr %5, i64 56
  %19 = getelementptr inbounds nuw i8, ptr %5, i64 68
  store i32 %17, ptr %19, align 4, !tbaa !40
  store i32 %17, ptr %18, align 8, !tbaa !40
  %20 = getelementptr inbounds nuw i8, ptr %0, i64 40
  %21 = load i32, ptr %20, align 8, !tbaa !41
  %22 = getelementptr inbounds nuw i8, ptr %5, i64 24
  %23 = getelementptr inbounds nuw i8, ptr %5, i64 36
  store i32 %21, ptr %23, align 4, !tbaa !40
  store i32 %21, ptr %22, align 8, !tbaa !40
  %24 = load i32, ptr %16, align 4, !tbaa !39
  %25 = sub nsw i32 0, %24
  %26 = zext nneg i8 %15 to i32
  %27 = ashr i32 %25, %26
  %28 = sub nsw i32 0, %27
  %29 = getelementptr inbounds nuw i8, ptr %5, i64 64
  store i32 %28, ptr %29, align 8, !tbaa !40
  %30 = getelementptr inbounds nuw i8, ptr %5, i64 60
  store i32 %28, ptr %30, align 4, !tbaa !40
  %31 = load i32, ptr %20, align 8, !tbaa !41
  %32 = sub nsw i32 0, %31
  %33 = zext nneg i8 %13 to i32
  %34 = ashr i32 %32, %33
  %35 = sub nsw i32 0, %34
  %36 = getelementptr inbounds nuw i8, ptr %5, i64 32
  store i32 %35, ptr %36, align 8, !tbaa !40
  %37 = getelementptr inbounds nuw i8, ptr %5, i64 28
  store i32 %35, ptr %37, align 4, !tbaa !40
  ret i32 0
}